target datalayout = "e-m:e-p270:32:32-p271:32:32-p272:64:64-i64:64-i128:128-f80:128-n8:16:32:64-S128"
target triple = "x86_64-pc-linux-gnu"

%struct.lua_State = type { %struct.GCRef, i8, i8, i8, i8, %struct.MRef, %struct.GCRef, ptr, ptr, %struct.MRef, %struct.MRef, %struct.GCRef, %struct.GCRef, ptr, i32 }
%struct.MRef = type { i64 }
%struct.GCRef = type { i64 }
%union.TValue = type { i64 }
%struct.global_State = type { ptr, ptr, %struct.GCState, %struct.GCstr, i8, i8, i8, i8, %struct.StrInternState, i32, %struct.GCRef, %struct.SBuf, %union.TValue, %union.TValue, %struct.Node, %union.TValue, %struct.GCupval, i32, i32, ptr, ptr, ptr, i32, i32, %struct.GCRef, %struct.MRef, %struct.MRef, %struct.PRNGState, [39 x %struct.GCRef] }
%struct.GCState = type { i64, i64, i8, i8, i8, i8, i32, %struct.GCRef, %struct.MRef, %struct.GCRef, %struct.GCRef, %struct.GCRef, %struct.GCRef, i64, i64, i32, i32, %struct.MRef }
%struct.GCstr = type { %struct.GCRef, i8, i8, i8, i8, i32, i32, i32 }
%struct.StrInternState = type { ptr, i32, i32, i32, i8, i8, i8, i8, i64 }
%struct.SBuf = type { ptr, ptr, ptr, %struct.MRef }
%struct.Node = type { %union.TValue, %union.TValue, %struct.MRef }
%struct.GCupval = type { %struct.GCRef, i8, i8, i8, i8, %union.anon, %struct.MRef, i32 }
%union.anon = type { %struct.anon.1 }
%struct.anon.1 = type { %struct.GCRef, %struct.GCRef }
%struct.PRNGState = type { [4 x i64] }
%struct.GCfuncC = type { %struct.GCRef, i8, i8, i8, i8, %struct.GCRef, %struct.GCRef, %struct.MRef, ptr, [1 x %union.TValue] }
%struct.GChead = type { %struct.GCRef, i8, i8, i8, i8, %struct.GCRef, %struct.GCRef, %struct.GCRef }
%struct.GCfuncL = type { %struct.GCRef, i8, i8, i8, i8, %struct.GCRef, %struct.GCRef, %struct.MRef, [1 x %struct.GCRef] }

@.str.1 = private unnamed_addr constant [24 x i8] c"store to dead GC object\00", align 1

; Function Attrs: alwaysinline nounwind uwtable
define internal void @checklivetv(ptr noundef %0, ptr noundef %1, ptr noundef %2) #4 {
  %4 = alloca ptr, align 8
  %5 = alloca ptr, align 8
  %6 = alloca ptr, align 8
  store ptr %0, ptr %4, align 8, !tbaa !4
  store ptr %1, ptr %5, align 8, !tbaa !22
  store ptr %2, ptr %6, align 8, !tbaa !20
  ret void
}

; Function Attrs: alwaysinline nounwind uwtable
define internal void @setgcVraw(ptr noundef %0, ptr noundef %1, i32 noundef %2) #4 {
  %4 = alloca ptr, align 8
  %5 = alloca ptr, align 8
  %6 = alloca i32, align 4
  store ptr %0, ptr %4, align 8, !tbaa !22
  store ptr %1, ptr %5, align 8, !tbaa !67
  store i32 %2, ptr %6, align 4, !tbaa !16
  %7 = load ptr, ptr %5, align 8, !tbaa !67
  %8 = ptrtoint ptr %7 to i64
  %9 = load i32, ptr %6, align 4, !tbaa !16
  %10 = zext i32 %9 to i64
  %11 = shl i64 %10, 47
  %12 = or i64 %8, %11
  %13 = load ptr, ptr %4, align 8, !tbaa !22
  %14 = getelementptr inbounds nuw %struct.GCRef, ptr %13, i32 0, i32 0
  store i64 %12, ptr %14, align 8, !tbaa !26
  ret void
}

; Function Attrs: alwaysinline nounwind uwtable
define internal void @setgcV(ptr noundef %0, ptr noundef %1, ptr noundef %2, i32 noundef %3) #4 {
  %5 = alloca ptr, align 8
  %6 = alloca ptr, align 8
  %7 = alloca ptr, align 8
  %8 = alloca i32, align 4
  store ptr %0, ptr %5, align 8, !tbaa !4
  store ptr %1, ptr %6, align 8, !tbaa !22
  store ptr %2, ptr %7, align 8, !tbaa !67
  store i32 %3, ptr %8, align 4, !tbaa !16
  %9 = load ptr, ptr %6, align 8, !tbaa !22
  %10 = load ptr, ptr %7, align 8, !tbaa !67
  %11 = load i32, ptr %8, align 4, !tbaa !16
  call void @setgcVraw(ptr noundef %9, ptr noundef %10, i32 noundef %11)
  %12 = load ptr, ptr %5, align 8, !tbaa !4
  %13 = load ptr, ptr %6, align 8, !tbaa !22
  call void @checklivetv(ptr noundef %12, ptr noundef %13, ptr noundef @.str.1)
  ret void
}

; Function Attrs: alwaysinline nounwind uwtable
define internal void @settabV(ptr noundef %0, ptr noundef %1, ptr noundef %2) #4 {
  %4 = alloca ptr, align 8
  %5 = alloca ptr, align 8
  %6 = alloca ptr, align 8
  store ptr %0, ptr %4, align 8, !tbaa !4
  store ptr %1, ptr %5, align 8, !tbaa !22
  store ptr %2, ptr %6, align 8, !tbaa !65
  %7 = load ptr, ptr %4, align 8, !tbaa !4
  %8 = load ptr, ptr %5, align 8, !tbaa !22
  %9 = load ptr, ptr %6, align 8, !tbaa !65
  call void @setgcV(ptr noundef %7, ptr noundef %8, ptr noundef %9, i32 noundef -12)
  ret void
}

; Function Attrs: nounwind uwtable
define internal ptr @index2adr(ptr noundef %0, i32 noundef %1) #0 {
  %3 = alloca ptr, align 8
  %4 = alloca ptr, align 8
  %5 = alloca i32, align 4
  %6 = alloca ptr, align 8
  %7 = alloca ptr, align 8
  %8 = alloca ptr, align 8
  %9 = alloca ptr, align 8
  %10 = alloca i32, align 4
  store ptr %0, ptr %4, align 8, !tbaa !4
  store i32 %1, ptr %5, align 4, !tbaa !16
  %11 = load i32, ptr %5, align 4, !tbaa !16
  %12 = icmp sgt i32 %11, 0
  br i1 %12, label %13, label %38

13:                                               ; preds = %2
  call void @llvm.lifetime.start.p0(i64 8, ptr %6) #9
  %14 = load ptr, ptr %4, align 8, !tbaa !4
  %15 = getelementptr inbounds nuw %struct.lua_State, ptr %14, i32 0, i32 7
  %16 = load ptr, ptr %15, align 8, !tbaa !18
  %17 = load i32, ptr %5, align 4, !tbaa !16
  %18 = sub nsw i32 %17, 1
  %19 = sext i32 %18 to i64
  %20 = getelementptr inbounds %union.TValue, ptr %16, i64 %19
  store ptr %20, ptr %6, align 8, !tbaa !22
  %21 = load ptr, ptr %6, align 8, !tbaa !22
  %22 = load ptr, ptr %4, align 8, !tbaa !4
  %23 = getelementptr inbounds nuw %struct.lua_State, ptr %22, i32 0, i32 8
  %24 = load ptr, ptr %23, align 8, !tbaa !17
  %25 = icmp ult ptr %21, %24
  br i1 %25, label %26, label %28

26:                                               ; preds = %13
  %27 = load ptr, ptr %6, align 8, !tbaa !22
  br label %36

28:                                               ; preds = %13
  %29 = load ptr, ptr %4, align 8, !tbaa !4
  %30 = getelementptr inbounds nuw %struct.lua_State, ptr %29, i32 0, i32 5
  %31 = getelementptr inbounds nuw %struct.MRef, ptr %30, i32 0, i32 0
  %32 = load i64, ptr %31, align 8, !tbaa !29
  %33 = inttoptr i64 %32 to ptr
  %34 = getelementptr inbounds nuw %struct.global_State, ptr %33, i32 0, i32 14
  %35 = getelementptr inbounds nuw %struct.Node, ptr %34, i32 0, i32 0
  br label %36

36:                                               ; preds = %28, %26
  %37 = phi ptr [ %27, %26 ], [ %35, %28 ]
  store ptr %37, ptr %3, align 8
  call void @llvm.lifetime.end.p0(i64 8, ptr %6) #9
  br label %129

38:                                               ; preds = %2
  %39 = load i32, ptr %5, align 4, !tbaa !16
  %40 = icmp sgt i32 %39, -10000
  br i1 %40, label %41, label %48

41:                                               ; preds = %38
  %42 = load ptr, ptr %4, align 8, !tbaa !4
  %43 = getelementptr inbounds nuw %struct.lua_State, ptr %42, i32 0, i32 8
  %44 = load ptr, ptr %43, align 8, !tbaa !17
  %45 = load i32, ptr %5, align 4, !tbaa !16
  %46 = sext i32 %45 to i64
  %47 = getelementptr inbounds %union.TValue, ptr %44, i64 %46
  store ptr %47, ptr %3, align 8
  br label %129

48:                                               ; preds = %38
  %49 = load i32, ptr %5, align 4, !tbaa !16
  %50 = icmp eq i32 %49, -10002
  br i1 %50, label %51, label %66

51:                                               ; preds = %48
  call void @llvm.lifetime.start.p0(i64 8, ptr %7) #9
  %52 = load ptr, ptr %4, align 8, !tbaa !4
  %53 = getelementptr inbounds nuw %struct.lua_State, ptr %52, i32 0, i32 5
  %54 = getelementptr inbounds nuw %struct.MRef, ptr %53, i32 0, i32 0
  %55 = load i64, ptr %54, align 8, !tbaa !29
  %56 = inttoptr i64 %55 to ptr
  %57 = getelementptr inbounds nuw %struct.global_State, ptr %56, i32 0, i32 12
  store ptr %57, ptr %7, align 8, !tbaa !22
  %58 = load ptr, ptr %4, align 8, !tbaa !4
  %59 = load ptr, ptr %7, align 8, !tbaa !22
  %60 = load ptr, ptr %4, align 8, !tbaa !4
  %61 = getelementptr inbounds nuw %struct.lua_State, ptr %60, i32 0, i32 12
  %62 = getelementptr inbounds nuw %struct.GCRef, ptr %61, i32 0, i32 0
  %63 = load i64, ptr %62, align 8, !tbaa !31
  %64 = inttoptr i64 %63 to ptr
  call void @settabV(ptr noundef %58, ptr noundef %59, ptr noundef %64)
  %65 = load ptr, ptr %7, align 8, !tbaa !22
  store ptr %65, ptr %3, align 8
  call void @llvm.lifetime.end.p0(i64 8, ptr %7) #9
  br label %129

66:                                               ; preds = %48
  %67 = load i32, ptr %5, align 4, !tbaa !16
  %68 = icmp eq i32 %67, -10000
  br i1 %68, label %69, label %76

69:                                               ; preds = %66
  %70 = load ptr, ptr %4, align 8, !tbaa !4
  %71 = getelementptr inbounds nuw %struct.lua_State, ptr %70, i32 0, i32 5
  %72 = getelementptr inbounds nuw %struct.MRef, ptr %71, i32 0, i32 0
  %73 = load i64, ptr %72, align 8, !tbaa !29
  %74 = inttoptr i64 %73 to ptr
  %75 = getelementptr inbounds nuw %struct.global_State, ptr %74, i32 0, i32 15
  store ptr %75, ptr %3, align 8
  br label %129

76:                                               ; preds = %66
  call void @llvm.lifetime.start.p0(i64 8, ptr %8) #9
  %77 = load ptr, ptr %4, align 8, !tbaa !4
  %78 = getelementptr inbounds nuw %struct.lua_State, ptr %77, i32 0, i32 7
  %79 = load ptr, ptr %78, align 8, !tbaa !18
  %80 = getelementptr inbounds %union.TValue, ptr %79, i64 -2
  %81 = getelementptr inbounds nuw %struct.GCRef, ptr %80, i32 0, i32 0
  %82 = load i64, ptr %81, align 8, !tbaa !26
  %83 = and i64 %82, 140737488355327
  %84 = inttoptr i64 %83 to ptr
  store ptr %84, ptr %8, align 8, !tbaa !32
  %85 = load i32, ptr %5, align 4, !tbaa !16
  %86 = icmp eq i32 %85, -10001
  br i1 %86, label %87, label %102

87:                                               ; preds = %76
  call void @llvm.lifetime.start.p0(i64 8, ptr %9) #9
  %88 = load ptr, ptr %4, align 8, !tbaa !4
  %89 = getelementptr inbounds nuw %struct.lua_State, ptr %88, i32 0, i32 5
  %90 = getelementptr inbounds nuw %struct.MRef, ptr %89, i32 0, i32 0
  %91 = load i64, ptr %90, align 8, !tbaa !29
  %92 = inttoptr i64 %91 to ptr
  %93 = getelementptr inbounds nuw %struct.global_State, ptr %92, i32 0, i32 12
  store ptr %93, ptr %9, align 8, !tbaa !22
  %94 = load ptr, ptr %4, align 8, !tbaa !4
  %95 = load ptr, ptr %9, align 8, !tbaa !22
  %96 = load ptr, ptr %8, align 8, !tbaa !32
  %97 = getelementptr inbounds nuw %struct.GCfuncC, ptr %96, i32 0, i32 5
  %98 = getelementptr inbounds nuw %struct.GCRef, ptr %97, i32 0, i32 0
  %99 = load i64, ptr %98, align 8, !tbaa !26
  %100 = inttoptr i64 %99 to ptr
  call void @settabV(ptr noundef %94, ptr noundef %95, ptr noundef %100)
  %101 = load ptr, ptr %9, align 8, !tbaa !22
  store ptr %101, ptr %3, align 8
  store i32 1, ptr %10, align 4
  call void @llvm.lifetime.end.p0(i64 8, ptr %9) #9
  br label %128

102:                                              ; preds = %76
  %103 = load i32, ptr %5, align 4, !tbaa !16
  %104 = sub nsw i32 -10002, %103
  store i32 %104, ptr %5, align 4, !tbaa !16
  %105 = load i32, ptr %5, align 4, !tbaa !16
  %106 = load ptr, ptr %8, align 8, !tbaa !32
  %107 = getelementptr inbounds nuw %struct.GCfuncC, ptr %106, i32 0, i32 4
  %108 = load i8, ptr %107, align 1, !tbaa !26
  %109 = zext i8 %108 to i32
  %110 = icmp sle i32 %105, %109
  br i1 %110, label %111, label %118

111:                                              ; preds = %102
  %112 = load ptr, ptr %8, align 8, !tbaa !32
  %113 = getelementptr inbounds nuw %struct.GCfuncC, ptr %112, i32 0, i32 9
  %114 = load i32, ptr %5, align 4, !tbaa !16
  %115 = sub nsw i32 %114, 1
  %116 = sext i32 %115 to i64
  %117 = getelementptr inbounds [1 x %union.TValue], ptr %113, i64 0, i64 %116
  br label %126

118:                                              ; preds = %102
  %119 = load ptr, ptr %4, align 8, !tbaa !4
  %120 = getelementptr inbounds nuw %struct.lua_State, ptr %119, i32 0, i32 5
  %121 = getelementptr inbounds nuw %struct.MRef, ptr %120, i32 0, i32 0
  %122 = load i64, ptr %121, align 8, !tbaa !29
  %123 = inttoptr i64 %122 to ptr
  %124 = getelementptr inbounds nuw %struct.global_State, ptr %123, i32 0, i32 14
  %125 = getelementptr inbounds nuw %struct.Node, ptr %124, i32 0, i32 0
  br label %126

126:                                              ; preds = %118, %111
  %127 = phi ptr [ %117, %111 ], [ %125, %118 ]
  store ptr %127, ptr %3, align 8
  store i32 1, ptr %10, align 4
  br label %128

128:                                              ; preds = %126, %87
  call void @llvm.lifetime.end.p0(i64 8, ptr %8) #9
  br label %129

129:                                              ; preds = %128, %69, %51, %41, %36
  %130 = load ptr, ptr %3, align 8
  ret ptr %130
}

; Function Attrs: nounwind uwtable
define dso_local void @lua_upvaluejoin(ptr noundef %0, i32 noundef %1, i32 noundef %2, i32 noundef %3, i32 noundef %4) #0 {
  %6 = alloca ptr, align 8
  %7 = alloca i32, align 4
  %8 = alloca i32, align 4
  %9 = alloca i32, align 4
  %10 = alloca i32, align 4
  %11 = alloca ptr, align 8
  %12 = alloca ptr, align 8
  store ptr %0, ptr %6, align 8, !tbaa !4
  store i32 %1, ptr %7, align 4, !tbaa !16
  store i32 %2, ptr %8, align 4, !tbaa !16
  store i32 %3, ptr %9, align 4, !tbaa !16
  store i32 %4, ptr %10, align 4, !tbaa !16
  call void @llvm.lifetime.start.p0(i64 8, ptr %11) #9
  %13 = load ptr, ptr %6, align 8, !tbaa !4
  %14 = load i32, ptr %7, align 4, !tbaa !16
  %15 = call ptr @index2adr(ptr noundef %13, i32 noundef %14)
  %16 = getelementptr inbounds nuw %struct.GCRef, ptr %15, i32 0, i32 0
  %17 = load i64, ptr %16, align 8, !tbaa !26
  %18 = and i64 %17, 140737488355327
  %19 = inttoptr i64 %18 to ptr
  store ptr %19, ptr %11, align 8, !tbaa !32
  call void @llvm.lifetime.start.p0(i64 8, ptr %12) #9
  %20 = load ptr, ptr %6, align 8, !tbaa !4
  %21 = load i32, ptr %9, align 4, !tbaa !16
  %22 = call ptr @index2adr(ptr noundef %20, i32 noundef %21)
  %23 = getelementptr inbounds nuw %struct.GCRef, ptr %22, i32 0, i32 0
  %24 = load i64, ptr %23, align 8, !tbaa !26
  %25 = and i64 %24, 140737488355327
  %26 = inttoptr i64 %25 to ptr
  store ptr %26, ptr %12, align 8, !tbaa !32
  %27 = load i32, ptr %8, align 4, !tbaa !16
  %28 = add nsw i32 %27, -1
  store i32 %28, ptr %8, align 4, !tbaa !16
  %29 = load i32, ptr %10, align 4, !tbaa !16
  %30 = add nsw i32 %29, -1
  store i32 %30, ptr %10, align 4, !tbaa !16
  %31 = load ptr, ptr %12, align 8, !tbaa !32
  %32 = getelementptr inbounds nuw %struct.GCfuncL, ptr %31, i32 0, i32 8
  %33 = load i32, ptr %10, align 4, !tbaa !16
  %34 = sext i32 %33 to i64
  %35 = getelementptr inbounds [1 x %struct.GCRef], ptr %32, i64 0, i64 %34
  %36 = getelementptr inbounds nuw %struct.GCRef, ptr %35, i32 0, i32 0
  %37 = load i64, ptr %36, align 8, !tbaa !26
  %38 = load ptr, ptr %11, align 8, !tbaa !32
  %39 = getelementptr inbounds nuw %struct.GCfuncL, ptr %38, i32 0, i32 8
  %40 = load i32, ptr %8, align 4, !tbaa !16
  %41 = sext i32 %40 to i64
  %42 = getelementptr inbounds [1 x %struct.GCRef], ptr %39, i64 0, i64 %41
  %43 = getelementptr inbounds nuw %struct.GCRef, ptr %42, i32 0, i32 0
  store i64 %37, ptr %43, align 8, !tbaa !26
  %44 = load ptr, ptr %11, align 8, !tbaa !32
  %45 = getelementptr inbounds nuw %struct.GCfuncL, ptr %44, i32 0, i32 8
  %46 = load i32, ptr %8, align 4, !tbaa !16
  %47 = sext i32 %46 to i64
  %48 = getelementptr inbounds [1 x %struct.GCRef], ptr %45, i64 0, i64 %47
  %49 = getelementptr inbounds nuw %struct.GCRef, ptr %48, i32 0, i32 0
  %50 = load i64, ptr %49, align 8, !tbaa !26
  %51 = inttoptr i64 %50 to ptr
  %52 = getelementptr inbounds nuw %struct.GChead, ptr %51, i32 0, i32 1
  %53 = load i8, ptr %52, align 8, !tbaa !26
  %54 = zext i8 %53 to i32
  %55 = and i32 %54, 3
  %56 = icmp ne i32 %55, 0
  br i1 %56, label %57, label %79

57:                                               ; preds = %5
  %58 = load ptr, ptr %11, align 8, !tbaa !32
  %59 = getelementptr inbounds nuw %struct.GChead, ptr %58, i32 0, i32 1
  %60 = load i8, ptr %59, align 8, !tbaa !26
  %61 = zext i8 %60 to i32
  %62 = and i32 %61, 4
  %63 = icmp ne i32 %62, 0
  br i1 %63, label %64, label %79

64:                                               ; preds = %57
  %65 = load ptr, ptr %6, align 8, !tbaa !4
  %66 = getelementptr inbounds nuw %struct.lua_State, ptr %65, i32 0, i32 5
  %67 = getelementptr inbounds nuw %struct.MRef, ptr %66, i32 0, i32 0
  %68 = load i64, ptr %67, align 8, !tbaa !29
  %69 = inttoptr i64 %68 to ptr
  %70 = load ptr, ptr %11, align 8, !tbaa !32
  %71 = load ptr, ptr %11, align 8, !tbaa !32
  %72 = getelementptr inbounds nuw %struct.GCfuncL, ptr %71, i32 0, i32 8
  %73 = load i32, ptr %8, align 4, !tbaa !16
  %74 = sext i32 %73 to i64
  %75 = getelementptr inbounds [1 x %struct.GCRef], ptr %72, i64 0, i64 %74
  %76 = getelementptr inbounds nuw %struct.GCRef, ptr %75, i32 0, i32 0
  %77 = load i64, ptr %76, align 8, !tbaa !26
  %78 = inttoptr i64 %77 to ptr
  call void @lj_gc_barrierf(ptr noundef %69, ptr noundef %70, ptr noundef %78)
  br label %79

79:                                               ; preds = %64, %57, %5
  call void @llvm.lifetime.end.p0(i64 8, ptr %12) #9
  call void @llvm.lifetime.end.p0(i64 8, ptr %11) #9
  ret void
}