; Function Attrs: nounwind uwtable
define dso_local void @lua_upvaluejoin(ptr noundef readonly captures(none) %0, i32 noundef %1, i32 noundef %2, i32 noundef %3, i32 noundef %4) local_unnamed_addr #1 {
  %6 = icmp sgt i32 %1, 0
  br i1 %6, label %7, label %21

7:                                                ; preds = %5
  %8 = getelementptr inbounds nuw i8, ptr %0, i64 32
  %9 = load ptr, ptr %8, align 8, !tbaa !15
  %10 = zext nneg i32 %1 to i64
  %11 = getelementptr %union.TValue, ptr %9, i64 %10
  %12 = getelementptr i8, ptr %11, i64 -8
  %13 = getelementptr inbounds nuw i8, ptr %0, i64 40
  %14 = load ptr, ptr %13, align 8, !tbaa !14
  %15 = icmp ult ptr %12, %14
  br i1 %15, label %index2adr.exit, label %16

16:                                               ; preds = %7
  %17 = getelementptr inbounds nuw i8, ptr %0, i64 16
  %18 = load i64, ptr %17, align 8, !tbaa !21
  %19 = inttoptr i64 %18 to ptr
  %20 = getelementptr inbounds nuw i8, ptr %19, i64 248
  br label %index2adr.exit

21:                                               ; preds = %5
  %22 = icmp sgt i32 %1, -10000
  br i1 %22, label %23, label %28

23:                                               ; preds = %21
  %24 = getelementptr inbounds nuw i8, ptr %0, i64 40
  %25 = load ptr, ptr %24, align 8, !tbaa !14
  %26 = sext i32 %1 to i64
  %27 = getelementptr inbounds %union.TValue, ptr %25, i64 %26
  br label %index2adr.exit

28:                                               ; preds = %21
  switch i32 %1, label %42 [
    i32 -10002, label %29
    i32 -10000, label %37
  ]

29:                                               ; preds = %28
  %30 = getelementptr inbounds nuw i8, ptr %0, i64 16
  %31 = load i64, ptr %30, align 8, !tbaa !21
  %32 = inttoptr i64 %31 to ptr
  %33 = getelementptr inbounds nuw i8, ptr %32, i64 232
  %34 = getelementptr inbounds nuw i8, ptr %0, i64 72
  %35 = load i64, ptr %34, align 8, !tbaa !24
  %36 = or i64 %35, -1688849860263936
  store i64 %36, ptr %33, align 8, !tbaa !17
  br label %index2adr.exit

37:                                               ; preds = %28
  %38 = getelementptr inbounds nuw i8, ptr %0, i64 16
  %39 = load i64, ptr %38, align 8, !tbaa !21
  %40 = inttoptr i64 %39 to ptr
  %41 = getelementptr inbounds nuw i8, ptr %40, i64 272
  br label %index2adr.exit

42:                                               ; preds = %28
  %43 = getelementptr inbounds nuw i8, ptr %0, i64 32
  %44 = load ptr, ptr %43, align 8, !tbaa !15
  %45 = getelementptr inbounds i8, ptr %44, i64 -16
  %46 = load i64, ptr %45, align 8, !tbaa !17
  %47 = and i64 %46, 140737488355327
  %48 = inttoptr i64 %47 to ptr
  %49 = icmp eq i32 %1, -10001
  br i1 %49, label %50, label %58

50:                                               ; preds = %42
  %51 = getelementptr inbounds nuw i8, ptr %0, i64 16
  %52 = load i64, ptr %51, align 8, !tbaa !21
  %53 = inttoptr i64 %52 to ptr
  %54 = getelementptr inbounds nuw i8, ptr %53, i64 232
  %55 = getelementptr inbounds nuw i8, ptr %48, i64 16
  %56 = load i64, ptr %55, align 8, !tbaa !17
  %57 = or i64 %56, -1688849860263936
  store i64 %57, ptr %54, align 8, !tbaa !17
  br label %index2adr.exit

58:                                               ; preds = %42
  %59 = sub nuw nsw i32 -10002, %1
  %60 = getelementptr inbounds nuw i8, ptr %48, i64 11
  %61 = load i8, ptr %60, align 1, !tbaa !17
  %62 = zext i8 %61 to i32
  %.not.i = icmp samesign ugt i32 %59, %62
  br i1 %.not.i, label %68, label %63

63:                                               ; preds = %58
  %64 = getelementptr inbounds nuw i8, ptr %48, i64 48
  %65 = sub nsw i32 -10003, %1
  %66 = sext i32 %65 to i64
  %67 = getelementptr inbounds [1 x %union.TValue], ptr %64, i64 0, i64 %66
  br label %index2adr.exit

68:                                               ; preds = %58
  %69 = getelementptr inbounds nuw i8, ptr %0, i64 16
  %70 = load i64, ptr %69, align 8, !tbaa !21
  %71 = inttoptr i64 %70 to ptr
  %72 = getelementptr inbounds nuw i8, ptr %71, i64 248
  br label %index2adr.exit

index2adr.exit:                                   ; preds = %7, %16, %23, %29, %37, %50, %63, %68
  %.0.i = phi ptr [ %27, %23 ], [ %33, %29 ], [ %41, %37 ], [ %20, %16 ], [ %12, %7 ], [ %54, %50 ], [ %67, %63 ], [ %72, %68 ]
  %73 = load i64, ptr %.0.i, align 8, !tbaa !17
  %74 = and i64 %73, 140737488355327
  %75 = inttoptr i64 %74 to ptr
  %76 = icmp sgt i32 %3, 0
  br i1 %76, label %77, label %91

77:                                               ; preds = %index2adr.exit
  %78 = getelementptr inbounds nuw i8, ptr %0, i64 32
  %79 = load ptr, ptr %78, align 8, !tbaa !15
  %80 = zext nneg i32 %3 to i64
  %81 = getelementptr %union.TValue, ptr %79, i64 %80
  %82 = getelementptr i8, ptr %81, i64 -8
  %83 = getelementptr inbounds nuw i8, ptr %0, i64 40
  %84 = load ptr, ptr %83, align 8, !tbaa !14
  %85 = icmp ult ptr %82, %84
  br i1 %85, label %index2adr.exit19, label %86

86:                                               ; preds = %77
  %87 = getelementptr inbounds nuw i8, ptr %0, i64 16
  %88 = load i64, ptr %87, align 8, !tbaa !21
  %89 = inttoptr i64 %88 to ptr
  %90 = getelementptr inbounds nuw i8, ptr %89, i64 248
  br label %index2adr.exit19

91:                                               ; preds = %index2adr.exit
  %92 = icmp sgt i32 %3, -10000
  br i1 %92, label %93, label %98

93:                                               ; preds = %91
  %94 = getelementptr inbounds nuw i8, ptr %0, i64 40
  %95 = load ptr, ptr %94, align 8, !tbaa !14
  %96 = sext i32 %3 to i64
  %97 = getelementptr inbounds %union.TValue, ptr %95, i64 %96
  br label %index2adr.exit19

98:                                               ; preds = %91
  switch i32 %3, label %112 [
    i32 -10002, label %99
    i32 -10000, label %107
  ]

99:                                               ; preds = %98
  %100 = getelementptr inbounds nuw i8, ptr %0, i64 16
  %101 = load i64, ptr %100, align 8, !tbaa !21
  %102 = inttoptr i64 %101 to ptr
  %103 = getelementptr inbounds nuw i8, ptr %102, i64 232
  %104 = getelementptr inbounds nuw i8, ptr %0, i64 72
  %105 = load i64, ptr %104, align 8, !tbaa !24
  %106 = or i64 %105, -1688849860263936
  store i64 %106, ptr %103, align 8, !tbaa !17
  br label %index2adr.exit19

107:                                              ; preds = %98
  %108 = getelementptr inbounds nuw i8, ptr %0, i64 16
  %109 = load i64, ptr %108, align 8, !tbaa !21
  %110 = inttoptr i64 %109 to ptr
  %111 = getelementptr inbounds nuw i8, ptr %110, i64 272
  br label %index2adr.exit19

112:                                              ; preds = %98
  %113 = getelementptr inbounds nuw i8, ptr %0, i64 32
  %114 = load ptr, ptr %113, align 8, !tbaa !15
  %115 = getelementptr inbounds i8, ptr %114, i64 -16
  %116 = load i64, ptr %115, align 8, !tbaa !17
  %117 = and i64 %116, 140737488355327
  %118 = inttoptr i64 %117 to ptr
  %119 = icmp eq i32 %3, -10001
  br i1 %119, label %120, label %128

120:                                              ; preds = %112
  %121 = getelementptr inbounds nuw i8, ptr %0, i64 16
  %122 = load i64, ptr %121, align 8, !tbaa !21
  %123 = inttoptr i64 %122 to ptr
  %124 = getelementptr inbounds nuw i8, ptr %123, i64 232
  %125 = getelementptr inbounds nuw i8, ptr %118, i64 16
  %126 = load i64, ptr %125, align 8, !tbaa !17
  %127 = or i64 %126, -1688849860263936
  store i64 %127, ptr %124, align 8, !tbaa !17
  br label %index2adr.exit19

128:                                              ; preds = %112
  %129 = sub nuw nsw i32 -10002, %3
  %130 = getelementptr inbounds nuw i8, ptr %118, i64 11
  %131 = load i8, ptr %130, align 1, !tbaa !17
  %132 = zext i8 %131 to i32
  %.not.i18 = icmp samesign ugt i32 %129, %132
  br i1 %.not.i18, label %138, label %133

133:                                              ; preds = %128
  %134 = getelementptr inbounds nuw i8, ptr %118, i64 48
  %135 = sub nsw i32 -10003, %3
  %136 = sext i32 %135 to i64
  %137 = getelementptr inbounds [1 x %union.TValue], ptr %134, i64 0, i64 %136
  br label %index2adr.exit19

138:                                              ; preds = %128
  %139 = getelementptr inbounds nuw i8, ptr %0, i64 16
  %140 = load i64, ptr %139, align 8, !tbaa !21
  %141 = inttoptr i64 %140 to ptr
  %142 = getelementptr inbounds nuw i8, ptr %141, i64 248
  br label %index2adr.exit19

index2adr.exit19:                                 ; preds = %77, %86, %93, %99, %107, %120, %133, %138
  %.0.i17 = phi ptr [ %97, %93 ], [ %103, %99 ], [ %111, %107 ], [ %90, %86 ], [ %82, %77 ], [ %124, %120 ], [ %137, %133 ], [ %142, %138 ]
  %143 = load i64, ptr %.0.i17, align 8, !tbaa !17
  %144 = and i64 %143, 140737488355327
  %145 = inttoptr i64 %144 to ptr
  %146 = add nsw i32 %2, -1
  %147 = add nsw i32 %4, -1
  %148 = getelementptr inbounds nuw i8, ptr %145, i64 40
  %149 = sext i32 %147 to i64
  %150 = getelementptr inbounds [1 x %struct.GCRef], ptr %148, i64 0, i64 %149
  %151 = load i64, ptr %150, align 8, !tbaa !17
  %152 = getelementptr inbounds nuw i8, ptr %75, i64 40
  %153 = sext i32 %146 to i64
  %154 = getelementptr inbounds [1 x %struct.GCRef], ptr %152, i64 0, i64 %153
  store i64 %151, ptr %154, align 8, !tbaa !17
  %155 = inttoptr i64 %151 to ptr
  %156 = getelementptr inbounds nuw i8, ptr %155, i64 8
  %157 = load i8, ptr %156, align 8, !tbaa !17
  %158 = and i8 %157, 3
  %.not = icmp eq i8 %158, 0
  br i1 %.not, label %167, label %159

159:                                              ; preds = %index2adr.exit19
  %160 = getelementptr inbounds nuw i8, ptr %75, i64 8
  %161 = load i8, ptr %160, align 8, !tbaa !17
  %162 = and i8 %161, 4
  %.not16 = icmp eq i8 %162, 0
  br i1 %.not16, label %167, label %163

163:                                              ; preds = %159
  %164 = getelementptr inbounds nuw i8, ptr %0, i64 16
  %165 = load i64, ptr %164, align 8, !tbaa !21
  %166 = inttoptr i64 %165 to ptr
  tail call void @lj_gc_barrierf(ptr noundef %166, ptr noundef nonnull %75, ptr noundef nonnull %155) #13
  br label %167

167:                                              ; preds = %163, %159, %index2adr.exit19
  ret void
}